target datalayout = "e-m:e-p270:32:32-p271:32:32-p272:64:64-i64:64-i128:128-f80:128-n8:16:32:64-S128"
target triple = "x86_64-pc-linux-gnu"

%struct.Amap_Lib_t_ = type { ptr, ptr, ptr, ptr, ptr, ptr, ptr, ptr, ptr, i32, i32, i32, ptr, i32, i32, ptr, ptr, ptr, ptr, ptr, ptr, i32 }
%struct.Vec_Int_t_ = type { i32, i32, ptr }
%struct.Amap_Nod_t_ = type { i32, i16, i16, i16, i16, ptr }

@.str.1 = private unnamed_addr constant [69 x i8] c"Creating node %5d %c :  iFan0 = %5d%c  iFan1 = %5d%c  iFan2 = %5d%c\0A\00", align 1

; Function Attrs: inlinehint nounwind uwtable
define internal void @Vec_IntGrow(ptr noundef %0, i32 noundef %1) #1 {
  %3 = alloca ptr, align 8
  %4 = alloca i32, align 4
  store ptr %0, ptr %3, align 8, !tbaa !20
  store i32 %1, ptr %4, align 4, !tbaa !8
  %5 = load ptr, ptr %3, align 8, !tbaa !20
  %6 = getelementptr inbounds nuw %struct.Vec_Int_t_, ptr %5, i32 0, i32 0
  %7 = load i32, ptr %6, align 8, !tbaa !39
  %8 = load i32, ptr %4, align 4, !tbaa !8
  %9 = icmp sge i32 %7, %8
  br i1 %9, label %10, label %11

10:                                               ; preds = %2
  br label %36

11:                                               ; preds = %2
  %12 = load ptr, ptr %3, align 8, !tbaa !20
  %13 = getelementptr inbounds nuw %struct.Vec_Int_t_, ptr %12, i32 0, i32 2
  %14 = load ptr, ptr %13, align 8, !tbaa !24
  %15 = icmp ne ptr %14, null
  br i1 %15, label %16, label %24

16:                                               ; preds = %11
  %17 = load ptr, ptr %3, align 8, !tbaa !20
  %18 = getelementptr inbounds nuw %struct.Vec_Int_t_, ptr %17, i32 0, i32 2
  %19 = load ptr, ptr %18, align 8, !tbaa !24
  %20 = load i32, ptr %4, align 4, !tbaa !8
  %21 = sext i32 %20 to i64
  %22 = mul i64 4, %21
  %23 = call ptr @realloc(ptr noundef %19, i64 noundef %22) #8
  br label %29

24:                                               ; preds = %11
  %25 = load i32, ptr %4, align 4, !tbaa !8
  %26 = sext i32 %25 to i64
  %27 = mul i64 4, %26
  %28 = call noalias ptr @malloc(i64 noundef %27) #9
  br label %29

29:                                               ; preds = %24, %16
  %30 = phi ptr [ %23, %16 ], [ %28, %24 ]
  %31 = load ptr, ptr %3, align 8, !tbaa !20
  %32 = getelementptr inbounds nuw %struct.Vec_Int_t_, ptr %31, i32 0, i32 2
  store ptr %30, ptr %32, align 8, !tbaa !24
  %33 = load i32, ptr %4, align 4, !tbaa !8
  %34 = load ptr, ptr %3, align 8, !tbaa !20
  %35 = getelementptr inbounds nuw %struct.Vec_Int_t_, ptr %34, i32 0, i32 0
  store i32 %33, ptr %35, align 8, !tbaa !39
  br label %36

36:                                               ; preds = %29, %10
  ret void
}

; Function Attrs: inlinehint nounwind uwtable
define internal void @Vec_IntPush(ptr noundef %0, i32 noundef %1) #1 {
  %3 = alloca ptr, align 8
  %4 = alloca i32, align 4
  store ptr %0, ptr %3, align 8, !tbaa !20
  store i32 %1, ptr %4, align 4, !tbaa !8
  %5 = load ptr, ptr %3, align 8, !tbaa !20
  %6 = getelementptr inbounds nuw %struct.Vec_Int_t_, ptr %5, i32 0, i32 1
  %7 = load i32, ptr %6, align 4, !tbaa !21
  %8 = load ptr, ptr %3, align 8, !tbaa !20
  %9 = getelementptr inbounds nuw %struct.Vec_Int_t_, ptr %8, i32 0, i32 0
  %10 = load i32, ptr %9, align 8, !tbaa !39
  %11 = icmp eq i32 %7, %10
  br i1 %11, label %12, label %26

12:                                               ; preds = %2
  %13 = load ptr, ptr %3, align 8, !tbaa !20
  %14 = getelementptr inbounds nuw %struct.Vec_Int_t_, ptr %13, i32 0, i32 0
  %15 = load i32, ptr %14, align 8, !tbaa !39
  %16 = icmp slt i32 %15, 16
  br i1 %16, label %17, label %19

17:                                               ; preds = %12
  %18 = load ptr, ptr %3, align 8, !tbaa !20
  call void @Vec_IntGrow(ptr noundef %18, i32 noundef 16)
  br label %25

19:                                               ; preds = %12
  %20 = load ptr, ptr %3, align 8, !tbaa !20
  %21 = load ptr, ptr %3, align 8, !tbaa !20
  %22 = getelementptr inbounds nuw %struct.Vec_Int_t_, ptr %21, i32 0, i32 0
  %23 = load i32, ptr %22, align 8, !tbaa !39
  %24 = mul nsw i32 2, %23
  call void @Vec_IntGrow(ptr noundef %20, i32 noundef %24)
  br label %25

25:                                               ; preds = %19, %17
  br label %26

26:                                               ; preds = %25, %2
  %27 = load i32, ptr %4, align 4, !tbaa !8
  %28 = load ptr, ptr %3, align 8, !tbaa !20
  %29 = getelementptr inbounds nuw %struct.Vec_Int_t_, ptr %28, i32 0, i32 2
  %30 = load ptr, ptr %29, align 8, !tbaa !24
  %31 = load ptr, ptr %3, align 8, !tbaa !20
  %32 = getelementptr inbounds nuw %struct.Vec_Int_t_, ptr %31, i32 0, i32 1
  %33 = load i32, ptr %32, align 4, !tbaa !21
  %34 = add nsw i32 %33, 1
  store i32 %34, ptr %32, align 4, !tbaa !21
  %35 = sext i32 %33 to i64
  %36 = getelementptr inbounds i32, ptr %30, i64 %35
  store i32 %27, ptr %36, align 4, !tbaa !8
  ret void
}

; Function Attrs: inlinehint nounwind uwtable
define internal i32 @Abc_LitIsCompl(i32 noundef %0) #1 {
  %2 = alloca i32, align 4
  store i32 %0, ptr %2, align 4, !tbaa !8
  %3 = load i32, ptr %2, align 4, !tbaa !8
  %4 = and i32 %3, 1
  ret i32 %4
}

; Function Attrs: inlinehint nounwind uwtable
define internal i32 @Abc_Lit2Var(i32 noundef %0) #1 {
  %2 = alloca i32, align 4
  store i32 %0, ptr %2, align 4, !tbaa !8
  %3 = load i32, ptr %2, align 4, !tbaa !8
  %4 = ashr i32 %3, 1
  ret i32 %4
}

; Function Attrs: nounwind uwtable
define i32 @Amap_LibCreateMux(ptr noundef %0, i32 noundef %1, i32 noundef %2, i32 noundef %3) #0 {
  %5 = alloca ptr, align 8
  %6 = alloca i32, align 4
  %7 = alloca i32, align 4
  %8 = alloca i32, align 4
  %9 = alloca ptr, align 8
  store ptr %0, ptr %5, align 8, !tbaa !3
  store i32 %1, ptr %6, align 4, !tbaa !8
  store i32 %2, ptr %7, align 4, !tbaa !8
  store i32 %3, ptr %8, align 4, !tbaa !8
  call void @llvm.lifetime.start.p0(i64 8, ptr %9) #7
  %10 = load ptr, ptr %5, align 8, !tbaa !3
  %11 = call ptr @Amap_LibCreateObj(ptr noundef %10)
  store ptr %11, ptr %9, align 8, !tbaa !36
  %12 = load ptr, ptr %9, align 8, !tbaa !36
  %13 = load i32, ptr %12, align 8
  %14 = and i32 %13, 16777215
  %15 = or i32 %14, 100663296
  store i32 %15, ptr %12, align 8
  %16 = load ptr, ptr %5, align 8, !tbaa !3
  %17 = getelementptr inbounds nuw %struct.Amap_Lib_t_, ptr %16, i32 0, i32 12
  %18 = load ptr, ptr %17, align 8, !tbaa !35
  %19 = load i32, ptr %6, align 4, !tbaa !8
  %20 = call i32 @Abc_Lit2Var(i32 noundef %19)
  %21 = sext i32 %20 to i64
  %22 = getelementptr inbounds %struct.Amap_Nod_t_, ptr %18, i64 %21
  %23 = load i32, ptr %22, align 8
  %24 = lshr i32 %23, 16
  %25 = and i32 %24, 255
  %26 = load ptr, ptr %5, align 8, !tbaa !3
  %27 = getelementptr inbounds nuw %struct.Amap_Lib_t_, ptr %26, i32 0, i32 12
  %28 = load ptr, ptr %27, align 8, !tbaa !35
  %29 = load i32, ptr %7, align 4, !tbaa !8
  %30 = call i32 @Abc_Lit2Var(i32 noundef %29)
  %31 = sext i32 %30 to i64
  %32 = getelementptr inbounds %struct.Amap_Nod_t_, ptr %28, i64 %31
  %33 = load i32, ptr %32, align 8
  %34 = lshr i32 %33, 16
  %35 = and i32 %34, 255
  %36 = add nsw i32 %25, %35
  %37 = load ptr, ptr %5, align 8, !tbaa !3
  %38 = getelementptr inbounds nuw %struct.Amap_Lib_t_, ptr %37, i32 0, i32 12
  %39 = load ptr, ptr %38, align 8, !tbaa !35
  %40 = load i32, ptr %8, align 4, !tbaa !8
  %41 = call i32 @Abc_Lit2Var(i32 noundef %40)
  %42 = sext i32 %41 to i64
  %43 = getelementptr inbounds %struct.Amap_Nod_t_, ptr %39, i64 %42
  %44 = load i32, ptr %43, align 8
  %45 = lshr i32 %44, 16
  %46 = and i32 %45, 255
  %47 = add nsw i32 %36, %46
  %48 = load ptr, ptr %9, align 8, !tbaa !36
  %49 = load i32, ptr %48, align 8
  %50 = and i32 %47, 255
  %51 = shl i32 %50, 16
  %52 = and i32 %49, -16711681
  %53 = or i32 %52, %51
  store i32 %53, ptr %48, align 8
  %54 = load i32, ptr %6, align 4, !tbaa !8
  %55 = trunc i32 %54 to i16
  %56 = load ptr, ptr %9, align 8, !tbaa !36
  %57 = getelementptr inbounds nuw %struct.Amap_Nod_t_, ptr %56, i32 0, i32 1
  store i16 %55, ptr %57, align 4, !tbaa !40
  %58 = load i32, ptr %7, align 4, !tbaa !8
  %59 = trunc i32 %58 to i16
  %60 = load ptr, ptr %9, align 8, !tbaa !36
  %61 = getelementptr inbounds nuw %struct.Amap_Nod_t_, ptr %60, i32 0, i32 2
  store i16 %59, ptr %61, align 2, !tbaa !44
  %62 = load i32, ptr %8, align 4, !tbaa !8
  %63 = trunc i32 %62 to i16
  %64 = load ptr, ptr %9, align 8, !tbaa !36
  %65 = getelementptr inbounds nuw %struct.Amap_Nod_t_, ptr %64, i32 0, i32 3
  store i16 %63, ptr %65, align 8, !tbaa !47
  %66 = load ptr, ptr %5, align 8, !tbaa !3
  %67 = getelementptr inbounds nuw %struct.Amap_Lib_t_, ptr %66, i32 0, i32 11
  %68 = load i32, ptr %67, align 8, !tbaa !45
  %69 = icmp ne i32 %68, 0
  br i1 %69, label %70, label %93

70:                                               ; preds = %4
  %71 = load ptr, ptr %9, align 8, !tbaa !36
  %72 = load i32, ptr %71, align 8
  %73 = and i32 %72, 65535
  %74 = load i32, ptr %6, align 4, !tbaa !8
  %75 = call i32 @Abc_Lit2Var(i32 noundef %74)
  %76 = load i32, ptr %6, align 4, !tbaa !8
  %77 = call i32 @Abc_LitIsCompl(i32 noundef %76)
  %78 = icmp ne i32 %77, 0
  %79 = select i1 %78, i32 45, i32 43
  %80 = load i32, ptr %7, align 4, !tbaa !8
  %81 = call i32 @Abc_Lit2Var(i32 noundef %80)
  %82 = load i32, ptr %7, align 4, !tbaa !8
  %83 = call i32 @Abc_LitIsCompl(i32 noundef %82)
  %84 = icmp ne i32 %83, 0
  %85 = select i1 %84, i32 45, i32 43
  %86 = load i32, ptr %8, align 4, !tbaa !8
  %87 = call i32 @Abc_Lit2Var(i32 noundef %86)
  %88 = load i32, ptr %8, align 4, !tbaa !8
  %89 = call i32 @Abc_LitIsCompl(i32 noundef %88)
  %90 = icmp ne i32 %89, 0
  %91 = select i1 %90, i32 45, i32 43
  %92 = call i32 (ptr, ...) @printf(ptr noundef @.str.1, i32 noundef %73, i32 noundef 109, i32 noundef %75, i32 noundef %79, i32 noundef %81, i32 noundef %85, i32 noundef %87, i32 noundef %91)
  br label %93

93:                                               ; preds = %70, %4
  %94 = load ptr, ptr %5, align 8, !tbaa !3
  %95 = getelementptr inbounds nuw %struct.Amap_Lib_t_, ptr %94, i32 0, i32 17
  %96 = load ptr, ptr %95, align 8, !tbaa !31
  %97 = load i32, ptr %6, align 4, !tbaa !8
  call void @Vec_IntPush(ptr noundef %96, i32 noundef %97)
  %98 = load ptr, ptr %5, align 8, !tbaa !3
  %99 = getelementptr inbounds nuw %struct.Amap_Lib_t_, ptr %98, i32 0, i32 17
  %100 = load ptr, ptr %99, align 8, !tbaa !31
  %101 = load i32, ptr %7, align 4, !tbaa !8
  call void @Vec_IntPush(ptr noundef %100, i32 noundef %101)
  %102 = load ptr, ptr %5, align 8, !tbaa !3
  %103 = getelementptr inbounds nuw %struct.Amap_Lib_t_, ptr %102, i32 0, i32 17
  %104 = load ptr, ptr %103, align 8, !tbaa !31
  %105 = load i32, ptr %8, align 4, !tbaa !8
  call void @Vec_IntPush(ptr noundef %104, i32 noundef %105)
  %106 = load ptr, ptr %5, align 8, !tbaa !3
  %107 = getelementptr inbounds nuw %struct.Amap_Lib_t_, ptr %106, i32 0, i32 17
  %108 = load ptr, ptr %107, align 8, !tbaa !31
  %109 = load ptr, ptr %9, align 8, !tbaa !36
  %110 = load i32, ptr %109, align 8
  %111 = and i32 %110, 65535
  call void @Vec_IntPush(ptr noundef %108, i32 noundef %111)
  %112 = load ptr, ptr %9, align 8, !tbaa !36
  %113 = load i32, ptr %112, align 8
  %114 = and i32 %113, 65535
  call void @llvm.lifetime.end.p0(i64 8, ptr %9) #7
  ret i32 %114
}