; Function Attrs: nounwind uwtable
define range(i32 0, 65536) i32 @Amap_LibCreateMux(ptr noundef captures(none) %0, i32 noundef %1, i32 noundef %2, i32 noundef %3) local_unnamed_addr #5 {
  %5 = tail call ptr @Amap_LibCreateObj(ptr noundef %0)
  %6 = load i32, ptr %5, align 8
  %7 = and i32 %6, 16777215
  %8 = or disjoint i32 %7, 100663296
  store i32 %8, ptr %5, align 8
  %9 = getelementptr inbounds nuw i8, ptr %0, i64 88
  %10 = load ptr, ptr %9, align 8, !tbaa !31
  %11 = ashr i32 %1, 1
  %12 = sext i32 %11 to i64
  %13 = getelementptr inbounds %struct.Amap_Nod_t_, ptr %10, i64 %12
  %14 = load i32, ptr %13, align 8
  %15 = and i32 %14, 16711680
  %16 = ashr i32 %2, 1
  %17 = sext i32 %16 to i64
  %18 = getelementptr inbounds %struct.Amap_Nod_t_, ptr %10, i64 %17
  %19 = load i32, ptr %18, align 8
  %20 = ashr i32 %3, 1
  %21 = sext i32 %20 to i64
  %22 = getelementptr inbounds %struct.Amap_Nod_t_, ptr %10, i64 %21
  %23 = load i32, ptr %22, align 8
  %24 = add i32 %19, %15
  %25 = and i32 %24, 16711680
  %26 = add i32 %25, %23
  %27 = and i32 %26, 16711680
  %28 = and i32 %8, 100728831
  %29 = or disjoint i32 %27, %28
  store i32 %29, ptr %5, align 8
  %30 = trunc i32 %1 to i16
  %31 = getelementptr inbounds nuw i8, ptr %5, i64 4
  store i16 %30, ptr %31, align 4, !tbaa !35
  %32 = trunc i32 %2 to i16
  %33 = getelementptr inbounds nuw i8, ptr %5, i64 6
  store i16 %32, ptr %33, align 2, !tbaa !39
  %34 = trunc i32 %3 to i16
  %35 = getelementptr inbounds nuw i8, ptr %5, i64 8
  store i16 %34, ptr %35, align 8, !tbaa !42
  %36 = getelementptr inbounds nuw i8, ptr %0, i64 80
  %37 = load i32, ptr %36, align 8, !tbaa !40
  %.not = icmp eq i32 %37, 0
  br i1 %.not, label %47, label %38

38:                                               ; preds = %4
  %39 = and i32 %6, 65535
  %40 = and i32 %1, 1
  %.not31 = icmp eq i32 %40, 0
  %41 = select i1 %.not31, i32 43, i32 45
  %42 = and i32 %2, 1
  %.not32 = icmp eq i32 %42, 0
  %43 = select i1 %.not32, i32 43, i32 45
  %44 = and i32 %3, 1
  %.not33 = icmp eq i32 %44, 0
  %45 = select i1 %.not33, i32 43, i32 45
  %46 = tail call i32 (ptr, ...) @printf(ptr noundef nonnull dereferenceable(1) @.str.1, i32 noundef %39, i32 noundef 109, i32 noundef %11, i32 noundef %41, i32 noundef %16, i32 noundef %43, i32 noundef %20, i32 noundef %45)
  br label %47

47:                                               ; preds = %38, %4
  %48 = getelementptr inbounds nuw i8, ptr %0, i64 120
  %49 = load ptr, ptr %48, align 8, !tbaa !27
  %50 = getelementptr inbounds nuw i8, ptr %49, i64 4
  %51 = load i32, ptr %50, align 4, !tbaa !19
  %52 = load i32, ptr %49, align 8, !tbaa !32
  %53 = icmp eq i32 %51, %52
  br i1 %53, label %54, label %.Vec_IntGrow.exit10_crit_edge.i

.Vec_IntGrow.exit10_crit_edge.i:                  ; preds = %47
  %.phi.trans.insert.i = getelementptr inbounds nuw i8, ptr %49, i64 8
  %.pre.i = load ptr, ptr %.phi.trans.insert.i, align 8, !tbaa !22
  br label %Vec_IntPush.exit

54:                                               ; preds = %47
  %55 = icmp slt i32 %51, 16
  br i1 %55, label %56, label %64

56:                                               ; preds = %54
  %57 = getelementptr inbounds nuw i8, ptr %49, i64 8
  %58 = load ptr, ptr %57, align 8, !tbaa !22
  %.not9.i.i = icmp eq ptr %58, null
  br i1 %.not9.i.i, label %61, label %59

59:                                               ; preds = %56
  %60 = tail call dereferenceable_or_null(64) ptr @realloc(ptr noundef nonnull %58, i64 noundef 64) #10
  br label %Vec_IntGrow.exit.i

61:                                               ; preds = %56
  %62 = tail call noalias dereferenceable_or_null(64) ptr @malloc(i64 noundef 64) #11
  br label %Vec_IntGrow.exit.i

Vec_IntGrow.exit.i:                               ; preds = %61, %59
  %63 = phi ptr [ %60, %59 ], [ %62, %61 ]
  store ptr %63, ptr %57, align 8, !tbaa !22
  store i32 16, ptr %49, align 8, !tbaa !32
  br label %Vec_IntPush.exit

64:                                               ; preds = %54
  %65 = shl nuw nsw i32 %51, 1
  %66 = getelementptr inbounds nuw i8, ptr %49, i64 8
  %67 = load ptr, ptr %66, align 8, !tbaa !22
  %.not9.i9.i = icmp eq ptr %67, null
  %68 = zext nneg i32 %65 to i64
  %69 = shl nuw nsw i64 %68, 2
  br i1 %.not9.i9.i, label %72, label %70

70:                                               ; preds = %64
  %71 = tail call ptr @realloc(ptr noundef nonnull %67, i64 noundef %69) #10
  br label %74

72:                                               ; preds = %64
  %73 = tail call noalias ptr @malloc(i64 noundef %69) #11
  br label %74

74:                                               ; preds = %72, %70
  %75 = phi ptr [ %71, %70 ], [ %73, %72 ]
  store ptr %75, ptr %66, align 8, !tbaa !22
  store i32 %65, ptr %49, align 8, !tbaa !32
  br label %Vec_IntPush.exit

Vec_IntPush.exit:                                 ; preds = %.Vec_IntGrow.exit10_crit_edge.i, %Vec_IntGrow.exit.i, %74
  %76 = phi ptr [ %.pre.i, %.Vec_IntGrow.exit10_crit_edge.i ], [ %75, %74 ], [ %63, %Vec_IntGrow.exit.i ]
  %77 = load i32, ptr %50, align 4, !tbaa !19
  %78 = add nsw i32 %77, 1
  store i32 %78, ptr %50, align 4, !tbaa !19
  %79 = sext i32 %77 to i64
  %80 = getelementptr inbounds i32, ptr %76, i64 %79
  store i32 %1, ptr %80, align 4, !tbaa !25
  %81 = load ptr, ptr %48, align 8, !tbaa !27
  %82 = getelementptr inbounds nuw i8, ptr %81, i64 4
  %83 = load i32, ptr %82, align 4, !tbaa !19
  %84 = load i32, ptr %81, align 8, !tbaa !32
  %85 = icmp eq i32 %83, %84
  br i1 %85, label %86, label %.Vec_IntGrow.exit10_crit_edge.i34

.Vec_IntGrow.exit10_crit_edge.i34:                ; preds = %Vec_IntPush.exit
  %.phi.trans.insert.i35 = getelementptr inbounds nuw i8, ptr %81, i64 8
  %.pre.i36 = load ptr, ptr %.phi.trans.insert.i35, align 8, !tbaa !22
  br label %Vec_IntPush.exit40

86:                                               ; preds = %Vec_IntPush.exit
  %87 = icmp slt i32 %83, 16
  br i1 %87, label %88, label %96

88:                                               ; preds = %86
  %89 = getelementptr inbounds nuw i8, ptr %81, i64 8
  %90 = load ptr, ptr %89, align 8, !tbaa !22
  %.not9.i.i38 = icmp eq ptr %90, null
  br i1 %.not9.i.i38, label %93, label %91

91:                                               ; preds = %88
  %92 = tail call dereferenceable_or_null(64) ptr @realloc(ptr noundef nonnull %90, i64 noundef 64) #10
  br label %Vec_IntGrow.exit.i39

93:                                               ; preds = %88
  %94 = tail call noalias dereferenceable_or_null(64) ptr @malloc(i64 noundef 64) #11
  br label %Vec_IntGrow.exit.i39

Vec_IntGrow.exit.i39:                             ; preds = %93, %91
  %95 = phi ptr [ %92, %91 ], [ %94, %93 ]
  store ptr %95, ptr %89, align 8, !tbaa !22
  store i32 16, ptr %81, align 8, !tbaa !32
  br label %Vec_IntPush.exit40

96:                                               ; preds = %86
  %97 = shl nuw nsw i32 %83, 1
  %98 = getelementptr inbounds nuw i8, ptr %81, i64 8
  %99 = load ptr, ptr %98, align 8, !tbaa !22
  %.not9.i9.i37 = icmp eq ptr %99, null
  %100 = zext nneg i32 %97 to i64
  %101 = shl nuw nsw i64 %100, 2
  br i1 %.not9.i9.i37, label %104, label %102

102:                                              ; preds = %96
  %103 = tail call ptr @realloc(ptr noundef nonnull %99, i64 noundef %101) #10
  br label %106

104:                                              ; preds = %96
  %105 = tail call noalias ptr @malloc(i64 noundef %101) #11
  br label %106

106:                                              ; preds = %104, %102
  %107 = phi ptr [ %103, %102 ], [ %105, %104 ]
  store ptr %107, ptr %98, align 8, !tbaa !22
  store i32 %97, ptr %81, align 8, !tbaa !32
  br label %Vec_IntPush.exit40

Vec_IntPush.exit40:                               ; preds = %.Vec_IntGrow.exit10_crit_edge.i34, %Vec_IntGrow.exit.i39, %106
  %108 = phi ptr [ %.pre.i36, %.Vec_IntGrow.exit10_crit_edge.i34 ], [ %107, %106 ], [ %95, %Vec_IntGrow.exit.i39 ]
  %109 = load i32, ptr %82, align 4, !tbaa !19
  %110 = add nsw i32 %109, 1
  store i32 %110, ptr %82, align 4, !tbaa !19
  %111 = sext i32 %109 to i64
  %112 = getelementptr inbounds i32, ptr %108, i64 %111
  store i32 %2, ptr %112, align 4, !tbaa !25
  %113 = load ptr, ptr %48, align 8, !tbaa !27
  %114 = getelementptr inbounds nuw i8, ptr %113, i64 4
  %115 = load i32, ptr %114, align 4, !tbaa !19
  %116 = load i32, ptr %113, align 8, !tbaa !32
  %117 = icmp eq i32 %115, %116
  br i1 %117, label %118, label %.Vec_IntGrow.exit10_crit_edge.i41

.Vec_IntGrow.exit10_crit_edge.i41:                ; preds = %Vec_IntPush.exit40
  %.phi.trans.insert.i42 = getelementptr inbounds nuw i8, ptr %113, i64 8
  %.pre.i43 = load ptr, ptr %.phi.trans.insert.i42, align 8, !tbaa !22
  br label %Vec_IntPush.exit47

118:                                              ; preds = %Vec_IntPush.exit40
  %119 = icmp slt i32 %115, 16
  br i1 %119, label %120, label %128

120:                                              ; preds = %118
  %121 = getelementptr inbounds nuw i8, ptr %113, i64 8
  %122 = load ptr, ptr %121, align 8, !tbaa !22
  %.not9.i.i45 = icmp eq ptr %122, null
  br i1 %.not9.i.i45, label %125, label %123

123:                                              ; preds = %120
  %124 = tail call dereferenceable_or_null(64) ptr @realloc(ptr noundef nonnull %122, i64 noundef 64) #10
  br label %Vec_IntGrow.exit.i46

125:                                              ; preds = %120
  %126 = tail call noalias dereferenceable_or_null(64) ptr @malloc(i64 noundef 64) #11
  br label %Vec_IntGrow.exit.i46

Vec_IntGrow.exit.i46:                             ; preds = %125, %123
  %127 = phi ptr [ %124, %123 ], [ %126, %125 ]
  store ptr %127, ptr %121, align 8, !tbaa !22
  store i32 16, ptr %113, align 8, !tbaa !32
  br label %Vec_IntPush.exit47

128:                                              ; preds = %118
  %129 = shl nuw nsw i32 %115, 1
  %130 = getelementptr inbounds nuw i8, ptr %113, i64 8
  %131 = load ptr, ptr %130, align 8, !tbaa !22
  %.not9.i9.i44 = icmp eq ptr %131, null
  %132 = zext nneg i32 %129 to i64
  %133 = shl nuw nsw i64 %132, 2
  br i1 %.not9.i9.i44, label %136, label %134

134:                                              ; preds = %128
  %135 = tail call ptr @realloc(ptr noundef nonnull %131, i64 noundef %133) #10
  br label %138

136:                                              ; preds = %128
  %137 = tail call noalias ptr @malloc(i64 noundef %133) #11
  br label %138

138:                                              ; preds = %136, %134
  %139 = phi ptr [ %135, %134 ], [ %137, %136 ]
  store ptr %139, ptr %130, align 8, !tbaa !22
  store i32 %129, ptr %113, align 8, !tbaa !32
  br label %Vec_IntPush.exit47

Vec_IntPush.exit47:                               ; preds = %.Vec_IntGrow.exit10_crit_edge.i41, %Vec_IntGrow.exit.i46, %138
  %140 = phi ptr [ %.pre.i43, %.Vec_IntGrow.exit10_crit_edge.i41 ], [ %139, %138 ], [ %127, %Vec_IntGrow.exit.i46 ]
  %141 = load i32, ptr %114, align 4, !tbaa !19
  %142 = add nsw i32 %141, 1
  store i32 %142, ptr %114, align 4, !tbaa !19
  %143 = sext i32 %141 to i64
  %144 = getelementptr inbounds i32, ptr %140, i64 %143
  store i32 %3, ptr %144, align 4, !tbaa !25
  %145 = load ptr, ptr %48, align 8, !tbaa !27
  %146 = load i32, ptr %5, align 8
  %147 = getelementptr inbounds nuw i8, ptr %145, i64 4
  %148 = load i32, ptr %147, align 4, !tbaa !19
  %149 = load i32, ptr %145, align 8, !tbaa !32
  %150 = icmp eq i32 %148, %149
  br i1 %150, label %151, label %.Vec_IntGrow.exit10_crit_edge.i48

.Vec_IntGrow.exit10_crit_edge.i48:                ; preds = %Vec_IntPush.exit47
  %.phi.trans.insert.i49 = getelementptr inbounds nuw i8, ptr %145, i64 8
  %.pre.i50 = load ptr, ptr %.phi.trans.insert.i49, align 8, !tbaa !22
  br label %Vec_IntPush.exit54

151:                                              ; preds = %Vec_IntPush.exit47
  %152 = icmp slt i32 %148, 16
  br i1 %152, label %153, label %161

153:                                              ; preds = %151
  %154 = getelementptr inbounds nuw i8, ptr %145, i64 8
  %155 = load ptr, ptr %154, align 8, !tbaa !22
  %.not9.i.i52 = icmp eq ptr %155, null
  br i1 %.not9.i.i52, label %158, label %156

156:                                              ; preds = %153
  %157 = tail call dereferenceable_or_null(64) ptr @realloc(ptr noundef nonnull %155, i64 noundef 64) #10
  br label %Vec_IntGrow.exit.i53

158:                                              ; preds = %153
  %159 = tail call noalias dereferenceable_or_null(64) ptr @malloc(i64 noundef 64) #11
  br label %Vec_IntGrow.exit.i53

Vec_IntGrow.exit.i53:                             ; preds = %158, %156
  %160 = phi ptr [ %157, %156 ], [ %159, %158 ]
  store ptr %160, ptr %154, align 8, !tbaa !22
  store i32 16, ptr %145, align 8, !tbaa !32
  br label %Vec_IntPush.exit54

161:                                              ; preds = %151
  %162 = shl nuw nsw i32 %148, 1
  %163 = getelementptr inbounds nuw i8, ptr %145, i64 8
  %164 = load ptr, ptr %163, align 8, !tbaa !22
  %.not9.i9.i51 = icmp eq ptr %164, null
  %165 = zext nneg i32 %162 to i64
  %166 = shl nuw nsw i64 %165, 2
  br i1 %.not9.i9.i51, label %169, label %167

167:                                              ; preds = %161
  %168 = tail call ptr @realloc(ptr noundef nonnull %164, i64 noundef %166) #10
  br label %171

169:                                              ; preds = %161
  %170 = tail call noalias ptr @malloc(i64 noundef %166) #11
  br label %171

171:                                              ; preds = %169, %167
  %172 = phi ptr [ %168, %167 ], [ %170, %169 ]
  store ptr %172, ptr %163, align 8, !tbaa !22
  store i32 %162, ptr %145, align 8, !tbaa !32
  br label %Vec_IntPush.exit54

Vec_IntPush.exit54:                               ; preds = %.Vec_IntGrow.exit10_crit_edge.i48, %Vec_IntGrow.exit.i53, %171
  %173 = phi ptr [ %.pre.i50, %.Vec_IntGrow.exit10_crit_edge.i48 ], [ %172, %171 ], [ %160, %Vec_IntGrow.exit.i53 ]
  %174 = and i32 %146, 65535
  %175 = load i32, ptr %147, align 4, !tbaa !19
  %176 = add nsw i32 %175, 1
  store i32 %176, ptr %147, align 4, !tbaa !19
  %177 = sext i32 %175 to i64
  %178 = getelementptr inbounds i32, ptr %173, i64 %177
  store i32 %174, ptr %178, align 4, !tbaa !25
  %179 = load i32, ptr %5, align 8
  %180 = and i32 %179, 65535
  ret i32 %180
}